target datalayout = "e-m:e-p270:32:32-p271:32:32-p272:64:64-i64:64-i128:128-f80:128-n8:16:32:64-S128"
target triple = "x86_64-pc-linux-gnu"

%struct.rsa_st = type { i32, ptr, i32, ptr, ptr, ptr, ptr, ptr, ptr, ptr, ptr, ptr, ptr, %struct.rsa_pss_params_30_st, ptr, ptr, %struct.crypto_ex_data_st, %struct.CRYPTO_REF_COUNT, i32, ptr, ptr, ptr, ptr, ptr, ptr, i32 }
%struct.rsa_pss_params_30_st = type { i32, %struct.anon, i32, i32 }
%struct.anon = type { i32, i32 }
%struct.crypto_ex_data_st = type { ptr, ptr }
%struct.CRYPTO_REF_COUNT = type { i32 }
%struct.rsa_prime_info_st = type { ptr, ptr, ptr, ptr, ptr }

; Function Attrs: inlinehint nounwind uwtable
define internal ptr @sk_RSA_PRIME_INFO_value(ptr noundef %0, i32 noundef %1) #5 {
  %3 = alloca ptr, align 8
  %4 = alloca i32, align 4
  store ptr %0, ptr %3, align 8, !tbaa !74
  store i32 %1, ptr %4, align 4, !tbaa !8
  %5 = load ptr, ptr %3, align 8, !tbaa !74
  %6 = load i32, ptr %4, align 4, !tbaa !8
  %7 = call ptr @OPENSSL_sk_value(ptr noundef %5, i32 noundef %6)
  ret ptr %7
}

; Function Attrs: inlinehint nounwind uwtable
define internal i32 @sk_RSA_PRIME_INFO_num(ptr noundef %0) #5 {
  %2 = alloca ptr, align 8
  store ptr %0, ptr %2, align 8, !tbaa !74
  %3 = load ptr, ptr %2, align 8, !tbaa !74
  %4 = call i32 @OPENSSL_sk_num(ptr noundef %3)
  ret i32 %4
}

; Function Attrs: nounwind uwtable
define internal i32 @rsa_ossl_finish(ptr noundef %0) #0 {
  %2 = alloca ptr, align 8
  %3 = alloca i32, align 4
  %4 = alloca ptr, align 8
  store ptr %0, ptr %2, align 8, !tbaa !12
  call void @llvm.lifetime.start.p0(i64 4, ptr %3) #6
  call void @llvm.lifetime.start.p0(i64 8, ptr %4) #6
  store i32 0, ptr %3, align 4, !tbaa !8
  br label %5

5:                                                ; preds = %21, %1
  %6 = load i32, ptr %3, align 4, !tbaa !8
  %7 = load ptr, ptr %2, align 8, !tbaa !12
  %8 = getelementptr inbounds nuw %struct.rsa_st, ptr %7, i32 0, i32 15
  %9 = load ptr, ptr %8, align 8, !tbaa !50
  %10 = call i32 @sk_RSA_PRIME_INFO_num(ptr noundef %9)
  %11 = icmp slt i32 %6, %10
  br i1 %11, label %12, label %24

12:                                               ; preds = %5
  %13 = load ptr, ptr %2, align 8, !tbaa !12
  %14 = getelementptr inbounds nuw %struct.rsa_st, ptr %13, i32 0, i32 15
  %15 = load ptr, ptr %14, align 8, !tbaa !50
  %16 = load i32, ptr %3, align 4, !tbaa !8
  %17 = call ptr @sk_RSA_PRIME_INFO_value(ptr noundef %15, i32 noundef %16)
  store ptr %17, ptr %4, align 8, !tbaa !51
  %18 = load ptr, ptr %4, align 8, !tbaa !51
  %19 = getelementptr inbounds nuw %struct.rsa_prime_info_st, ptr %18, i32 0, i32 4
  %20 = load ptr, ptr %19, align 8, !tbaa !60
  call void @BN_MONT_CTX_free(ptr noundef %20)
  br label %21

21:                                               ; preds = %12
  %22 = load i32, ptr %3, align 4, !tbaa !8
  %23 = add nsw i32 %22, 1
  store i32 %23, ptr %3, align 4, !tbaa !8
  br label %5, !llvm.loop !65

24:                                               ; preds = %5
  %25 = load ptr, ptr %2, align 8, !tbaa !12
  %26 = getelementptr inbounds nuw %struct.rsa_st, ptr %25, i32 0, i32 19
  %27 = load ptr, ptr %26, align 8, !tbaa !38
  call void @BN_MONT_CTX_free(ptr noundef %27)
  %28 = load ptr, ptr %2, align 8, !tbaa !12
  %29 = getelementptr inbounds nuw %struct.rsa_st, ptr %28, i32 0, i32 20
  %30 = load ptr, ptr %29, align 8, !tbaa !58
  call void @BN_MONT_CTX_free(ptr noundef %30)
  %31 = load ptr, ptr %2, align 8, !tbaa !12
  %32 = getelementptr inbounds nuw %struct.rsa_st, ptr %31, i32 0, i32 21
  %33 = load ptr, ptr %32, align 8, !tbaa !57
  call void @BN_MONT_CTX_free(ptr noundef %33)
  call void @llvm.lifetime.end.p0(i64 8, ptr %4) #6
  call void @llvm.lifetime.end.p0(i64 4, ptr %3) #6
  ret i32 1
}