; Function Attrs: nounwind uwtable
define internal noundef i32 @rsa_ossl_finish(ptr noundef readonly captures(none) %0) #3 {
  %2 = getelementptr inbounds nuw i8, ptr %0, i64 136
  %3 = load ptr, ptr %2, align 8, !tbaa !43
  %4 = tail call i32 @OPENSSL_sk_num(ptr noundef %3) #9
  %5 = icmp sgt i32 %4, 0
  br i1 %5, label %.lr.ph, label %._crit_edge

.lr.ph:                                           ; preds = %1, %.lr.ph
  %.08 = phi i32 [ %10, %.lr.ph ], [ 0, %1 ]
  %6 = load ptr, ptr %2, align 8, !tbaa !43
  %7 = tail call ptr @OPENSSL_sk_value(ptr noundef %6, i32 noundef %.08) #9
  %8 = getelementptr inbounds nuw i8, ptr %7, i64 32
  %9 = load ptr, ptr %8, align 8, !tbaa !53
  tail call void @BN_MONT_CTX_free(ptr noundef %9) #9
  %10 = add nuw nsw i32 %.08, 1
  %11 = load ptr, ptr %2, align 8, !tbaa !43
  %12 = tail call i32 @OPENSSL_sk_num(ptr noundef %11) #9
  %13 = icmp slt i32 %10, %12
  br i1 %13, label %.lr.ph, label %._crit_edge, !llvm.loop !57

._crit_edge:                                      ; preds = %.lr.ph, %1
  %14 = getelementptr inbounds nuw i8, ptr %0, i64 168
  %15 = load ptr, ptr %14, align 8, !tbaa !31
  tail call void @BN_MONT_CTX_free(ptr noundef %15) #9
  %16 = getelementptr inbounds nuw i8, ptr %0, i64 176
  %17 = load ptr, ptr %16, align 8, !tbaa !49
  tail call void @BN_MONT_CTX_free(ptr noundef %17) #9
  %18 = getelementptr inbounds nuw i8, ptr %0, i64 184
  %19 = load ptr, ptr %18, align 8, !tbaa !48
  tail call void @BN_MONT_CTX_free(ptr noundef %19) #9
  ret i32 1
}